; Function Attrs: nounwind uwtable
define ptr @l_Lean_Elab_Tactic_withLocation___lambda__2___boxed(ptr noundef %0, ptr noundef %1, ptr noundef %2, ptr noundef %3, ptr noundef %4, ptr noundef %5, ptr noundef %6, ptr noundef %7, ptr noundef %8, ptr noundef %9, ptr noundef %10, ptr noundef %11, ptr noundef %12) local_unnamed_addr #0 {
  %14 = ptrtoint ptr %1 to i64
  %15 = and i64 %14, 1
  %.not = icmp eq i64 %15, 0
  br i1 %.not, label %16, label %lean_dec.exit

16:                                               ; preds = %13
  %17 = load i32, ptr %1, align 4, !tbaa !8
  %18 = icmp sgt i32 %17, 1
  br i1 %18, label %19, label %21, !prof !11

19:                                               ; preds = %16
  %20 = add nsw i32 %17, -1
  store i32 %20, ptr %1, align 4, !tbaa !8
  br label %lean_dec.exit

21:                                               ; preds = %16
  %.not.i = icmp eq i32 %17, 0
  br i1 %.not.i, label %lean_dec.exit, label %22

22:                                               ; preds = %21
  tail call void @lean_dec_ref_cold(ptr noundef nonnull %1) #4
  br label %lean_dec.exit

lean_dec.exit:                                    ; preds = %22, %21, %19, %13
  tail call void @lean_inc_heartbeat() #4
  %23 = tail call noalias ptr @mi_malloc_small(i64 noundef 48) #4
  %24 = icmp eq ptr %23, null
  br i1 %24, label %25, label %l_Lean_Elab_Tactic_withLocation___lambda__2.exit

25:                                               ; preds = %lean_dec.exit
  tail call void @lean_internal_panic_out_of_memory() #5
  unreachable

l_Lean_Elab_Tactic_withLocation___lambda__2.exit: ; preds = %lean_dec.exit
  %26 = and i64 %14, 510
  %27 = or disjoint i64 %26, 1
  %28 = inttoptr i64 %27 to ptr
  %29 = getelementptr inbounds nuw i8, ptr %23, i64 4
  store i32 1, ptr %23, align 4, !tbaa !8
  store i32 -184549328, ptr %29, align 4
  %30 = getelementptr inbounds nuw i8, ptr %23, i64 8
  store ptr @l_Lean_Elab_Tactic_withLocation___lambda__1___boxed, ptr %30, align 8, !tbaa !4
  %31 = getelementptr inbounds nuw i8, ptr %23, i64 16
  store i16 12, ptr %31, align 8, !tbaa !17
  %32 = getelementptr inbounds nuw i8, ptr %23, i64 18
  store i16 3, ptr %32, align 2, !tbaa !17
  %33 = getelementptr inbounds nuw i8, ptr %23, i64 24
  store ptr %0, ptr %33, align 8, !tbaa !4
  %34 = getelementptr inbounds nuw i8, ptr %23, i64 32
  store ptr %28, ptr %34, align 8, !tbaa !4
  %35 = getelementptr inbounds nuw i8, ptr %23, i64 40
  store ptr %2, ptr %35, align 8, !tbaa !4
  %36 = tail call ptr @l_Lean_MVarId_withContext___at_Lean_Elab_Tactic_withMainContext___spec__1___rarg(ptr noundef %3, ptr noundef nonnull %23, ptr noundef %4, ptr noundef %5, ptr noundef %6, ptr noundef %7, ptr noundef %8, ptr noundef %9, ptr noundef %10, ptr noundef %11, ptr noundef %12) #4
  ret ptr %36
}